; Function Attrs: mustprogress uwtable
define dso_local void @_ZN25cmGhsMultiTargetGenerator22WriteCustomCommandLineERSoRNSt7__cxx1112basic_stringIcSt11char_traitsIcESaIcEEERK24cmCustomCommandGenerator(ptr nocapture nonnull readnone align 8 %0, ptr noundef nonnull align 8 dereferenceable(8) %1, ptr noundef nonnull align 8 dereferenceable(32) %2, ptr noundef nonnull align 8 dereferenceable(352) %3) local_unnamed_addr #3 align 2 {
  %5 = tail call noundef nonnull align 8 dereferenceable(24) ptr @_ZNK24cmCustomCommandGenerator10GetOutputsB5cxx11Ev(ptr noundef nonnull align 8 dereferenceable(352) %3)
  %6 = load ptr, ptr %5, align 8
  %7 = getelementptr inbounds i8, ptr %5, i64 8
  %8 = load ptr, ptr %7, align 8
  %.not2837 = icmp eq ptr %6, %8
  br i1 %.not2837, label %._crit_edge42, label %.lr.ph41

.lr.ph41:                                         ; preds = %4, %.loopexit
  %.039 = phi i8 [ %.1, %.loopexit ], [ 1, %4 ]
  %.sroa.025.038 = phi ptr [ %32, %.loopexit ], [ %6, %4 ]
  %9 = tail call noundef nonnull align 8 dereferenceable(8) ptr @_ZStlsIcSt11char_traitsIcESaIcEERSt13basic_ostreamIT_T0_ES7_RKNSt7__cxx1112basic_stringIS4_S5_T1_EE(ptr noundef nonnull align 8 dereferenceable(8) %1, ptr noundef nonnull align 8 dereferenceable(32) %2)
  %10 = tail call noundef nonnull align 8 dereferenceable(8) ptr @_ZStlsISt11char_traitsIcEERSt13basic_ostreamIcT_ES5_c(ptr noundef nonnull align 8 dereferenceable(8) %9, i8 noundef signext 10)
  %11 = tail call noundef nonnull align 8 dereferenceable(8) ptr @_ZStlsISt11char_traitsIcEERSt13basic_ostreamIcT_ES5_PKc(ptr noundef nonnull align 8 dereferenceable(8) %1, ptr noundef nonnull @.str.64)
  %12 = tail call noundef nonnull align 8 dereferenceable(8) ptr @_ZStlsIcSt11char_traitsIcESaIcEERSt13basic_ostreamIT_T0_ES7_RKNSt7__cxx1112basic_stringIS4_S5_T1_EE(ptr noundef nonnull align 8 dereferenceable(8) %11, ptr noundef nonnull align 8 dereferenceable(32) %.sroa.025.038)
  %13 = tail call noundef nonnull align 8 dereferenceable(8) ptr @_ZStlsISt11char_traitsIcEERSt13basic_ostreamIcT_ES5_PKc(ptr noundef nonnull align 8 dereferenceable(8) %12, ptr noundef nonnull @.str.10)
  %14 = and i8 %.039, 1
  %.not = icmp eq i8 %14, 0
  br i1 %.not, label %.loopexit, label %15

15:                                               ; preds = %.lr.ph41
  %16 = tail call noundef nonnull align 8 dereferenceable(24) ptr @_ZNK24cmCustomCommandGenerator13GetByproductsB5cxx11Ev(ptr noundef nonnull align 8 dereferenceable(352) %3)
  %17 = load ptr, ptr %16, align 8
  %18 = getelementptr inbounds i8, ptr %16, i64 8
  %19 = load ptr, ptr %18, align 8
  %.not2931 = icmp eq ptr %17, %19
  br i1 %.not2931, label %._crit_edge, label %.lr.ph

.lr.ph:                                           ; preds = %15, %.lr.ph
  %.sroa.021.032 = phi ptr [ %23, %.lr.ph ], [ %17, %15 ]
  %20 = tail call noundef nonnull align 8 dereferenceable(8) ptr @_ZStlsISt11char_traitsIcEERSt13basic_ostreamIcT_ES5_PKc(ptr noundef nonnull align 8 dereferenceable(8) %1, ptr noundef nonnull @.str.32)
  %21 = tail call noundef nonnull align 8 dereferenceable(8) ptr @_ZStlsIcSt11char_traitsIcESaIcEERSt13basic_ostreamIT_T0_ES7_RKNSt7__cxx1112basic_stringIS4_S5_T1_EE(ptr noundef nonnull align 8 dereferenceable(8) %20, ptr noundef nonnull align 8 dereferenceable(32) %.sroa.021.032)
  %22 = tail call noundef nonnull align 8 dereferenceable(8) ptr @_ZStlsISt11char_traitsIcEERSt13basic_ostreamIcT_ES5_PKc(ptr noundef nonnull align 8 dereferenceable(8) %21, ptr noundef nonnull @.str.10)
  %23 = getelementptr inbounds i8, ptr %.sroa.021.032, i64 32
  %.not29 = icmp eq ptr %23, %19
  br i1 %.not29, label %._crit_edge, label %.lr.ph

._crit_edge:                                      ; preds = %.lr.ph, %15
  %24 = tail call noundef nonnull align 8 dereferenceable(24) ptr @_ZNK24cmCustomCommandGenerator10GetDependsB5cxx11Ev(ptr noundef nonnull align 8 dereferenceable(352) %3)
  %25 = load ptr, ptr %24, align 8
  %26 = getelementptr inbounds i8, ptr %24, i64 8
  %27 = load ptr, ptr %26, align 8
  %.not3033 = icmp eq ptr %25, %27
  br i1 %.not3033, label %.loopexit, label %.lr.ph36

.lr.ph36:                                         ; preds = %._crit_edge, %.lr.ph36
  %.sroa.017.034 = phi ptr [ %31, %.lr.ph36 ], [ %25, %._crit_edge ]
  %28 = tail call noundef nonnull align 8 dereferenceable(8) ptr @_ZStlsISt11char_traitsIcEERSt13basic_ostreamIcT_ES5_PKc(ptr noundef nonnull align 8 dereferenceable(8) %1, ptr noundef nonnull @.str.65)
  %29 = tail call noundef nonnull align 8 dereferenceable(8) ptr @_ZStlsIcSt11char_traitsIcESaIcEERSt13basic_ostreamIT_T0_ES7_RKNSt7__cxx1112basic_stringIS4_S5_T1_EE(ptr noundef nonnull align 8 dereferenceable(8) %28, ptr noundef nonnull align 8 dereferenceable(32) %.sroa.017.034)
  %30 = tail call noundef nonnull align 8 dereferenceable(8) ptr @_ZStlsISt11char_traitsIcEERSt13basic_ostreamIcT_ES5_PKc(ptr noundef nonnull align 8 dereferenceable(8) %29, ptr noundef nonnull @.str.10)
  %31 = getelementptr inbounds i8, ptr %.sroa.017.034, i64 32
  %.not30 = icmp eq ptr %31, %27
  br i1 %.not30, label %.loopexit, label %.lr.ph36

.loopexit:                                        ; preds = %.lr.ph36, %._crit_edge, %.lr.ph41
  %.1 = phi i8 [ %.039, %.lr.ph41 ], [ 0, %._crit_edge ], [ 0, %.lr.ph36 ]
  %32 = getelementptr inbounds i8, ptr %.sroa.025.038, i64 32
  %.not28 = icmp eq ptr %32, %8
  br i1 %.not28, label %._crit_edge42, label %.lr.ph41

._crit_edge42:                                    ; preds = %.loopexit, %4
  ret void
}